; ModuleID = '56/2987.c'
source_filename = "56/2987.c"
target datalayout = "e-m:e-p270:32:32-p271:32:32-p272:64:64-i64:64-f80:128-n8:16:32:64-S128"
target triple = "x86_64-pc-linux-gnu"

@.str = private unnamed_addr constant [2 x i8] c"\0A\00", align 1
@.str.1 = private unnamed_addr constant [3 x i8] c"%c\00", align 1

; Function Attrs: noinline nounwind uwtable
define dso_local i32 @main() #0 {
  %1 = alloca i8*, align 8
  %2 = call noalias i8* @malloc(i64 5) #3
  store i8* %2, i8** %1, align 8
  %3 = load i8*, i8** %1, align 8
  %4 = call i32 (i8*, ...) bitcast (i32 (...)* @gets to i32 (i8*, ...)*)(i8* %3)
  %5 = load i8*, i8** %1, align 8
  call void @change(i8* %5)
  ret i32 0
}

; Function Attrs: nounwind
declare dso_local noalias i8* @malloc(i64) #1

declare dso_local i32 @gets(...) #2

; Function Attrs: noinline nounwind uwtable
define dso_local void @change(i8* %0) #0 {
  %2 = alloca i8*, align 8
  %3 = alloca i8*, align 8
  store i8* %0, i8** %2, align 8
  %4 = load i8*, i8** %2, align 8
  store i8* %4, i8** %3, align 8
  %5 = load i8*, i8** %2, align 8
  %6 = load i8, i8* %5, align 1
  %7 = sext i8 %6 to i32
  %8 = icmp eq i32 %7, 0
  br i1 %8, label %9, label %11

9:                                                ; preds = %1
  %10 = call i32 (i8*, ...) @printf(i8* getelementptr inbounds ([2 x i8], [2 x i8]* @.str, i64 0, i64 0))
  br label %30

11:                                               ; preds = %1
  br label %12

12:                                               ; preds = %18, %11
  %13 = load i8*, i8** %2, align 8
  %14 = load i8, i8* %13, align 1
  %15 = sext i8 %14 to i32
  %16 = icmp ne i32 %15, 0
  br i1 %16, label %17, label %21

17:                                               ; preds = %12
  br label %18

18:                                               ; preds = %17
  %19 = load i8*, i8** %2, align 8
  %20 = getelementptr inbounds i8, i8* %19, i32 1
  store i8* %20, i8** %2, align 8
  br label %12

21:                                               ; preds = %12
  %22 = load i8*, i8** %2, align 8
  %23 = getelementptr inbounds i8, i8* %22, i64 -1
  %24 = load i8, i8* %23, align 1
  %25 = sext i8 %24 to i32
  %26 = call i32 (i8*, ...) @printf(i8* getelementptr inbounds ([3 x i8], [3 x i8]* @.str.1, i64 0, i64 0), i32 %25)
  %27 = load i8*, i8** %2, align 8
  %28 = getelementptr inbounds i8, i8* %27, i64 -1
  store i8 0, i8* %28, align 1
  %29 = load i8*, i8** %3, align 8
  call void @change(i8* %29)
  br label %30

30:                                               ; preds = %21, %9
  ret void
}

declare dso_local i32 @printf(i8*, ...) #2


!llvm.module.flags = !{!0}
!llvm.ident = !{!1}

!0 = !{i32 1, !"wchar_size", i32 4}
!1 = !{!"clang version 10.0.0-4ubuntu1 "}
